target datalayout = "e-m:e-p270:32:32-p271:32:32-p272:64:64-i64:64-i128:128-f80:128-n8:16:32:64-S128"
target triple = "x86_64-pc-linux-gnu"

%"class.cv::Range" = type { i32, i32 }
%"struct.std::_Vector_base" = type { %"struct.std::_Vector_base<std::vector<int>, std::allocator<std::vector<int>>>::_Vector_impl" }
%"struct.std::_Vector_base<std::vector<int>, std::allocator<std::vector<int>>>::_Vector_impl" = type { %"struct.std::_Vector_base<std::vector<int>, std::allocator<std::vector<int>>>::_Vector_impl_data" }
%"struct.std::_Vector_base<std::vector<int>, std::allocator<std::vector<int>>>::_Vector_impl_data" = type { ptr, ptr, ptr }
%"class.std::vector.0" = type { %"struct.std::_Vector_base.1" }
%"struct.std::_Vector_base.1" = type { %"struct.std::_Vector_base<int, std::allocator<int>>::_Vector_impl" }
%"struct.std::_Vector_base<int, std::allocator<int>>::_Vector_impl" = type { %"struct.std::_Vector_base<int, std::allocator<int>>::_Vector_impl_data" }
%"struct.std::_Vector_base<int, std::allocator<int>>::_Vector_impl_data" = type { ptr, ptr, ptr }
%"struct.std::_Vector_base.6" = type { %"struct.std::_Vector_base<std::vector<cv::Range>, std::allocator<std::vector<cv::Range>>>::_Vector_impl" }
%"struct.std::_Vector_base<std::vector<cv::Range>, std::allocator<std::vector<cv::Range>>>::_Vector_impl" = type { %"struct.std::_Vector_base<std::vector<cv::Range>, std::allocator<std::vector<cv::Range>>>::_Vector_impl_data" }
%"struct.std::_Vector_base<std::vector<cv::Range>, std::allocator<std::vector<cv::Range>>>::_Vector_impl_data" = type { ptr, ptr, ptr }
%"class.std::vector.10" = type { %"struct.std::_Vector_base.11" }
%"struct.std::_Vector_base.11" = type { %"struct.std::_Vector_base<cv::Range, std::allocator<cv::Range>>::_Vector_impl" }
%"struct.std::_Vector_base<cv::Range, std::allocator<cv::Range>>::_Vector_impl" = type { %"struct.std::_Vector_base<cv::Range, std::allocator<cv::Range>>::_Vector_impl_data" }
%"struct.std::_Vector_base<cv::Range, std::allocator<cv::Range>>::_Vector_impl_data" = type { ptr, ptr, ptr }

; Function Attrs: mustprogress nounwind uwtable
define linkonce_odr hidden noundef nonnull align 4 dereferenceable(4) ptr @_ZNKSt6vectorIiSaIiEEixEm(ptr noundef nonnull align 8 dereferenceable(24) %0, i64 noundef %1) #8 comdat align 2 {
  %3 = alloca ptr, align 8
  %4 = alloca i64, align 8
  store ptr %0, ptr %3, align 8, !tbaa !16
  store i64 %1, ptr %4, align 8, !tbaa !24
  %5 = load ptr, ptr %3, align 8
  %6 = getelementptr inbounds nuw %"struct.std::_Vector_base.1", ptr %5, i32 0, i32 0
  %7 = getelementptr inbounds nuw %"struct.std::_Vector_base<int, std::allocator<int>>::_Vector_impl_data", ptr %6, i32 0, i32 0
  %8 = load ptr, ptr %7, align 8, !tbaa !30
  %9 = load i64, ptr %4, align 8, !tbaa !24
  %10 = getelementptr inbounds nuw i32, ptr %8, i64 %9
  ret ptr %10
}

; Function Attrs: mustprogress nounwind uwtable
define linkonce_odr hidden noundef nonnull align 4 dereferenceable(8) ptr @_ZNSt6vectorIN2cv5RangeESaIS1_EEixEm(ptr noundef nonnull align 8 dereferenceable(24) %0, i64 noundef %1) #8 comdat align 2 {
  %3 = alloca ptr, align 8
  %4 = alloca i64, align 8
  store ptr %0, ptr %3, align 8, !tbaa !34
  store i64 %1, ptr %4, align 8, !tbaa !24
  %5 = load ptr, ptr %3, align 8
  %6 = getelementptr inbounds nuw %"struct.std::_Vector_base.11", ptr %5, i32 0, i32 0
  %7 = getelementptr inbounds nuw %"struct.std::_Vector_base<cv::Range, std::allocator<cv::Range>>::_Vector_impl_data", ptr %6, i32 0, i32 0
  %8 = load ptr, ptr %7, align 8, !tbaa !35
  %9 = load i64, ptr %4, align 8, !tbaa !24
  %10 = getelementptr inbounds nuw %"class.cv::Range", ptr %8, i64 %9
  ret ptr %10
}

; Function Attrs: mustprogress nounwind uwtable
define linkonce_odr hidden noundef nonnull align 8 dereferenceable(24) ptr @_ZNSt6vectorIS_IN2cv5RangeESaIS1_EESaIS3_EEixEm(ptr noundef nonnull align 8 dereferenceable(24) %0, i64 noundef %1) #8 comdat align 2 {
  %3 = alloca ptr, align 8
  %4 = alloca i64, align 8
  store ptr %0, ptr %3, align 8, !tbaa !18
  store i64 %1, ptr %4, align 8, !tbaa !24
  %5 = load ptr, ptr %3, align 8
  %6 = getelementptr inbounds nuw %"struct.std::_Vector_base.6", ptr %5, i32 0, i32 0
  %7 = getelementptr inbounds nuw %"struct.std::_Vector_base<std::vector<cv::Range>, std::allocator<std::vector<cv::Range>>>::_Vector_impl_data", ptr %6, i32 0, i32 0
  %8 = load ptr, ptr %7, align 8, !tbaa !31
  %9 = load i64, ptr %4, align 8, !tbaa !24
  %10 = getelementptr inbounds nuw %"class.std::vector.10", ptr %8, i64 %9
  ret ptr %10
}

; Function Attrs: mustprogress nounwind uwtable
define linkonce_odr hidden noundef nonnull align 4 dereferenceable(4) ptr @_ZNSt6vectorIiSaIiEEixEm(ptr noundef nonnull align 8 dereferenceable(24) %0, i64 noundef %1) #8 comdat align 2 {
  %3 = alloca ptr, align 8
  %4 = alloca i64, align 8
  store ptr %0, ptr %3, align 8, !tbaa !16
  store i64 %1, ptr %4, align 8, !tbaa !24
  %5 = load ptr, ptr %3, align 8
  %6 = getelementptr inbounds nuw %"struct.std::_Vector_base.1", ptr %5, i32 0, i32 0
  %7 = getelementptr inbounds nuw %"struct.std::_Vector_base<int, std::allocator<int>>::_Vector_impl_data", ptr %6, i32 0, i32 0
  %8 = load ptr, ptr %7, align 8, !tbaa !30
  %9 = load i64, ptr %4, align 8, !tbaa !24
  %10 = getelementptr inbounds nuw i32, ptr %8, i64 %9
  ret ptr %10
}

; Function Attrs: mustprogress nounwind uwtable
define linkonce_odr hidden noundef i64 @_ZNKSt6vectorIiSaIiEE4sizeEv(ptr noundef nonnull align 8 dereferenceable(24) %0) #8 comdat align 2 {
  %2 = alloca ptr, align 8
  store ptr %0, ptr %2, align 8, !tbaa !16
  %3 = load ptr, ptr %2, align 8
  %4 = getelementptr inbounds nuw %"struct.std::_Vector_base.1", ptr %3, i32 0, i32 0
  %5 = getelementptr inbounds nuw %"struct.std::_Vector_base<int, std::allocator<int>>::_Vector_impl_data", ptr %4, i32 0, i32 1
  %6 = load ptr, ptr %5, align 8, !tbaa !28
  %7 = getelementptr inbounds nuw %"struct.std::_Vector_base.1", ptr %3, i32 0, i32 0
  %8 = getelementptr inbounds nuw %"struct.std::_Vector_base<int, std::allocator<int>>::_Vector_impl_data", ptr %7, i32 0, i32 0
  %9 = load ptr, ptr %8, align 8, !tbaa !30
  %10 = ptrtoint ptr %6 to i64
  %11 = ptrtoint ptr %9 to i64
  %12 = sub i64 %10, %11
  %13 = sdiv exact i64 %12, 4
  ret i64 %13
}

; Function Attrs: mustprogress nounwind uwtable
define linkonce_odr hidden noundef nonnull align 8 dereferenceable(24) ptr @_ZNSt6vectorIS_IiSaIiEESaIS1_EEixEm(ptr noundef nonnull align 8 dereferenceable(24) %0, i64 noundef %1) #8 comdat align 2 {
  %3 = alloca ptr, align 8
  %4 = alloca i64, align 8
  store ptr %0, ptr %3, align 8, !tbaa !20
  store i64 %1, ptr %4, align 8, !tbaa !24
  %5 = load ptr, ptr %3, align 8
  %6 = getelementptr inbounds nuw %"struct.std::_Vector_base", ptr %5, i32 0, i32 0
  %7 = getelementptr inbounds nuw %"struct.std::_Vector_base<std::vector<int>, std::allocator<std::vector<int>>>::_Vector_impl_data", ptr %6, i32 0, i32 0
  %8 = load ptr, ptr %7, align 8, !tbaa !26
  %9 = load i64, ptr %4, align 8, !tbaa !24
  %10 = getelementptr inbounds nuw %"class.std::vector.0", ptr %8, i64 %9
  ret ptr %10
}

; Function Attrs: mustprogress nounwind uwtable
define hidden void @_ZN2cv3dnn19tranformForNegStepsERKSt6vectorIiSaIiEERS1_IS1_INS_5RangeESaIS6_EESaIS8_EERS1_IS3_SaIS3_EE(ptr noundef nonnull align 8 dereferenceable(24) %0, ptr noundef nonnull align 8 dereferenceable(24) %1, ptr noundef nonnull align 8 dereferenceable(24) %2) #8 {
  %4 = alloca ptr, align 8
  %5 = alloca ptr, align 8
  %6 = alloca ptr, align 8
  %7 = alloca i32, align 4
  %8 = alloca i32, align 4
  %9 = alloca i32, align 4
  %10 = alloca i32, align 4
  %11 = alloca i32, align 4
  %12 = alloca i32, align 4
  store ptr %0, ptr %4, align 8, !tbaa !16
  store ptr %1, ptr %5, align 8, !tbaa !18
  store ptr %2, ptr %6, align 8, !tbaa !20
  call void @llvm.lifetime.start.p0(i64 4, ptr %7) #3
  call void @llvm.lifetime.start.p0(i64 4, ptr %8) #3
  call void @llvm.lifetime.start.p0(i64 4, ptr %9) #3
  call void @llvm.lifetime.start.p0(i64 4, ptr %10) #3
  call void @llvm.lifetime.start.p0(i64 4, ptr %11) #3
  call void @llvm.lifetime.start.p0(i64 4, ptr %12) #3
  store i32 0, ptr %12, align 4, !tbaa !8
  br label %13

13:                                               ; preds = %99, %3
  %14 = load i32, ptr %12, align 4, !tbaa !8
  %15 = sext i32 %14 to i64
  %16 = load ptr, ptr %6, align 8, !tbaa !20
  %17 = call noundef nonnull align 8 dereferenceable(24) ptr @_ZNSt6vectorIS_IiSaIiEESaIS1_EEixEm(ptr noundef nonnull align 8 dereferenceable(24) %16, i64 noundef 0) #3
  %18 = call noundef i64 @_ZNKSt6vectorIiSaIiEE4sizeEv(ptr noundef nonnull align 8 dereferenceable(24) %17) #3
  %19 = icmp ult i64 %15, %18
  br i1 %19, label %21, label %20

20:                                               ; preds = %13
  call void @llvm.lifetime.end.p0(i64 4, ptr %12) #3
  br label %102

21:                                               ; preds = %13
  %22 = load ptr, ptr %6, align 8, !tbaa !20
  %23 = call noundef nonnull align 8 dereferenceable(24) ptr @_ZNSt6vectorIS_IiSaIiEESaIS1_EEixEm(ptr noundef nonnull align 8 dereferenceable(24) %22, i64 noundef 0) #3
  %24 = load i32, ptr %12, align 4, !tbaa !8
  %25 = sext i32 %24 to i64
  %26 = call noundef nonnull align 4 dereferenceable(4) ptr @_ZNSt6vectorIiSaIiEEixEm(ptr noundef nonnull align 8 dereferenceable(24) %23, i64 noundef %25) #3
  %27 = load i32, ptr %26, align 4, !tbaa !8
  store i32 %27, ptr %11, align 4, !tbaa !8
  %28 = load i32, ptr %11, align 4, !tbaa !8
  %29 = icmp sgt i32 %28, 0
  br i1 %29, label %30, label %31

30:                                               ; preds = %21
  br label %99

31:                                               ; preds = %21
  %32 = load i32, ptr %11, align 4, !tbaa !8
  %33 = sub nsw i32 0, %32
  store i32 %33, ptr %11, align 4, !tbaa !8
  %34 = load ptr, ptr %5, align 8, !tbaa !18
  %35 = call noundef nonnull align 8 dereferenceable(24) ptr @_ZNSt6vectorIS_IN2cv5RangeESaIS1_EESaIS3_EEixEm(ptr noundef nonnull align 8 dereferenceable(24) %34, i64 noundef 0) #3
  %36 = load i32, ptr %12, align 4, !tbaa !8
  %37 = sext i32 %36 to i64
  %38 = call noundef nonnull align 4 dereferenceable(8) ptr @_ZNSt6vectorIN2cv5RangeESaIS1_EEixEm(ptr noundef nonnull align 8 dereferenceable(24) %35, i64 noundef %37) #3
  %39 = getelementptr inbounds nuw %"class.cv::Range", ptr %38, i32 0, i32 0
  %40 = load i32, ptr %39, align 4, !tbaa !11
  store i32 %40, ptr %7, align 4, !tbaa !8
  %41 = load ptr, ptr %5, align 8, !tbaa !18
  %42 = call noundef nonnull align 8 dereferenceable(24) ptr @_ZNSt6vectorIS_IN2cv5RangeESaIS1_EESaIS3_EEixEm(ptr noundef nonnull align 8 dereferenceable(24) %41, i64 noundef 0) #3
  %43 = load i32, ptr %12, align 4, !tbaa !8
  %44 = sext i32 %43 to i64
  %45 = call noundef nonnull align 4 dereferenceable(8) ptr @_ZNSt6vectorIN2cv5RangeESaIS1_EEixEm(ptr noundef nonnull align 8 dereferenceable(24) %42, i64 noundef %44) #3
  %46 = getelementptr inbounds nuw %"class.cv::Range", ptr %45, i32 0, i32 1
  %47 = load i32, ptr %46, align 4, !tbaa !13
  store i32 %47, ptr %8, align 4, !tbaa !8
  %48 = load i32, ptr %7, align 4, !tbaa !8
  %49 = load ptr, ptr %4, align 8, !tbaa !16
  %50 = load i32, ptr %12, align 4, !tbaa !8
  %51 = sext i32 %50 to i64
  %52 = call noundef nonnull align 4 dereferenceable(4) ptr @_ZNKSt6vectorIiSaIiEEixEm(ptr noundef nonnull align 8 dereferenceable(24) %49, i64 noundef %51) #3
  %53 = load i32, ptr %52, align 4, !tbaa !8
  %54 = icmp sge i32 %48, %53
  br i1 %54, label %55, label %61

55:                                               ; preds = %31
  %56 = load ptr, ptr %4, align 8, !tbaa !16
  %57 = load i32, ptr %12, align 4, !tbaa !8
  %58 = sext i32 %57 to i64
  %59 = call noundef nonnull align 4 dereferenceable(4) ptr @_ZNKSt6vectorIiSaIiEEixEm(ptr noundef nonnull align 8 dereferenceable(24) %56, i64 noundef %58) #3
  %60 = load i32, ptr %59, align 4, !tbaa !8
  br label %64

61:                                               ; preds = %31
  %62 = load i32, ptr %7, align 4, !tbaa !8
  %63 = add nsw i32 %62, 1
  br label %64

64:                                               ; preds = %61, %55
  %65 = phi i32 [ %60, %55 ], [ %63, %61 ]
  store i32 %65, ptr %10, align 4, !tbaa !8
  %66 = load i32, ptr %8, align 4, !tbaa !8
  %67 = add nsw i32 %66, 1
  store i32 %67, ptr %9, align 4, !tbaa !8
  %68 = load i32, ptr %10, align 4, !tbaa !8
  %69 = sub nsw i32 %68, 1
  %70 = load i32, ptr %10, align 4, !tbaa !8
  %71 = sub nsw i32 %70, 1
  %72 = load i32, ptr %9, align 4, !tbaa !8
  %73 = sub nsw i32 %71, %72
  %74 = load i32, ptr %11, align 4, !tbaa !8
  %75 = sdiv i32 %73, %74
  %76 = load i32, ptr %11, align 4, !tbaa !8
  %77 = mul nsw i32 %75, %76
  %78 = sub nsw i32 %69, %77
  store i32 %78, ptr %9, align 4, !tbaa !8
  %79 = load i32, ptr %11, align 4, !tbaa !8
  %80 = load ptr, ptr %6, align 8, !tbaa !20
  %81 = call noundef nonnull align 8 dereferenceable(24) ptr @_ZNSt6vectorIS_IiSaIiEESaIS1_EEixEm(ptr noundef nonnull align 8 dereferenceable(24) %80, i64 noundef 0) #3
  %82 = load i32, ptr %12, align 4, !tbaa !8
  %83 = sext i32 %82 to i64
  %84 = call noundef nonnull align 4 dereferenceable(4) ptr @_ZNSt6vectorIiSaIiEEixEm(ptr noundef nonnull align 8 dereferenceable(24) %81, i64 noundef %83) #3
  store i32 %79, ptr %84, align 4, !tbaa !8
  %85 = load i32, ptr %9, align 4, !tbaa !8
  %86 = load ptr, ptr %5, align 8, !tbaa !18
  %87 = call noundef nonnull align 8 dereferenceable(24) ptr @_ZNSt6vectorIS_IN2cv5RangeESaIS1_EESaIS3_EEixEm(ptr noundef nonnull align 8 dereferenceable(24) %86, i64 noundef 0) #3
  %88 = load i32, ptr %12, align 4, !tbaa !8
  %89 = sext i32 %88 to i64
  %90 = call noundef nonnull align 4 dereferenceable(8) ptr @_ZNSt6vectorIN2cv5RangeESaIS1_EEixEm(ptr noundef nonnull align 8 dereferenceable(24) %87, i64 noundef %89) #3
  %91 = getelementptr inbounds nuw %"class.cv::Range", ptr %90, i32 0, i32 0
  store i32 %85, ptr %91, align 4, !tbaa !11
  %92 = load i32, ptr %10, align 4, !tbaa !8
  %93 = load ptr, ptr %5, align 8, !tbaa !18
  %94 = call noundef nonnull align 8 dereferenceable(24) ptr @_ZNSt6vectorIS_IN2cv5RangeESaIS1_EESaIS3_EEixEm(ptr noundef nonnull align 8 dereferenceable(24) %93, i64 noundef 0) #3
  %95 = load i32, ptr %12, align 4, !tbaa !8
  %96 = sext i32 %95 to i64
  %97 = call noundef nonnull align 4 dereferenceable(8) ptr @_ZNSt6vectorIN2cv5RangeESaIS1_EEixEm(ptr noundef nonnull align 8 dereferenceable(24) %94, i64 noundef %96) #3
  %98 = getelementptr inbounds nuw %"class.cv::Range", ptr %97, i32 0, i32 1
  store i32 %92, ptr %98, align 4, !tbaa !13
  br label %99

99:                                               ; preds = %64, %30
  %100 = load i32, ptr %12, align 4, !tbaa !8
  %101 = add nsw i32 %100, 1
  store i32 %101, ptr %12, align 4, !tbaa !8
  br label %13, !llvm.loop !22

102:                                              ; preds = %20
  call void @llvm.lifetime.end.p0(i64 4, ptr %11) #3
  call void @llvm.lifetime.end.p0(i64 4, ptr %10) #3
  call void @llvm.lifetime.end.p0(i64 4, ptr %9) #3
  call void @llvm.lifetime.end.p0(i64 4, ptr %8) #3
  call void @llvm.lifetime.end.p0(i64 4, ptr %7) #3
  ret void
}