; Function Attrs: mustprogress nofree norecurse nosync nounwind memory(readwrite, inaccessiblemem: none) uwtable
define hidden void @_ZN2cv3dnn19tranformForNegStepsERKSt6vectorIiSaIiEERS1_IS1_INS_5RangeESaIS6_EESaIS8_EERS1_IS3_SaIS3_EE(ptr noundef nonnull readonly align 8 captures(none) dereferenceable(24) %0, ptr noundef nonnull readonly align 8 captures(none) dereferenceable(24) %1, ptr noundef nonnull readonly align 8 captures(none) dereferenceable(24) %2) local_unnamed_addr #6 {
  %4 = load ptr, ptr %2, align 8, !tbaa !3
  %5 = getelementptr inbounds nuw i8, ptr %4, i64 8
  %6 = load ptr, ptr %5, align 8, !tbaa !9
  %7 = load ptr, ptr %4, align 8, !tbaa !12
  %.not36 = icmp eq ptr %6, %7
  br i1 %.not36, label %._crit_edge, label %.lr.ph

.lr.ph:                                           ; preds = %3
  %8 = ptrtoint ptr %6 to i64
  %9 = ptrtoint ptr %7 to i64
  %10 = sub i64 %8, %9
  %11 = ashr exact i64 %10, 2
  %12 = load ptr, ptr %1, align 8
  %13 = load ptr, ptr %0, align 8
  %umax = tail call i64 @llvm.umax.i64(i64 %11, i64 1)
  br label %14

._crit_edge:                                      ; preds = %32, %3
  ret void

14:                                               ; preds = %.lr.ph, %32
  %indvars.iv = phi i64 [ 0, %.lr.ph ], [ %indvars.iv.next, %32 ]
  %15 = getelementptr inbounds nuw i32, ptr %7, i64 %indvars.iv
  %16 = load i32, ptr %15, align 4, !tbaa !13
  %17 = icmp sgt i32 %16, 0
  br i1 %17, label %32, label %18

18:                                               ; preds = %14
  %19 = sub nsw i32 0, %16
  %20 = load ptr, ptr %12, align 8, !tbaa !15
  %21 = getelementptr inbounds nuw %"class.cv::Range", ptr %20, i64 %indvars.iv
  %22 = load i32, ptr %21, align 4, !tbaa !18
  %23 = getelementptr inbounds nuw i8, ptr %21, i64 4
  %24 = load i32, ptr %23, align 4, !tbaa !20
  %25 = getelementptr inbounds nuw i32, ptr %13, i64 %indvars.iv
  %26 = load i32, ptr %25, align 4, !tbaa !13
  %.not = icmp slt i32 %22, %26
  %27 = add nsw i32 %22, 1
  %spec.select = select i1 %.not, i32 %27, i32 %26
  %.neg = xor i32 %24, -1
  %28 = add nsw i32 %spec.select, -1
  %29 = add i32 %28, %.neg
  %.fr = freeze i32 %29
  %30 = srem i32 %.fr, %19
  %.neg34 = add i32 %28, %30
  %31 = sub i32 %.neg34, %.fr
  store i32 %19, ptr %15, align 4, !tbaa !13
  store i32 %31, ptr %21, align 4, !tbaa !18
  store i32 %spec.select, ptr %23, align 4, !tbaa !20
  br label %32

32:                                               ; preds = %14, %18
  %indvars.iv.next = add nuw nsw i64 %indvars.iv, 1
  %exitcond.not = icmp eq i64 %indvars.iv.next, %umax
  br i1 %exitcond.not, label %._crit_edge, label %14, !llvm.loop !21
}